; Function Attrs: nounwind uwtable
define hidden i32 @X509_STORE_CTX_set_default(ptr noundef readonly captures(none) %0, ptr noundef %1) local_unnamed_addr #0 {
  %3 = tail call ptr @X509_VERIFY_PARAM_lookup(ptr noundef %1) #14
  %.not = icmp eq ptr %3, null
  br i1 %.not, label %8, label %4

4:                                                ; preds = %2
  %5 = getelementptr inbounds nuw i8, ptr %0, i64 40
  %6 = load ptr, ptr %5, align 8, !tbaa !6
  %7 = tail call i32 @X509_VERIFY_PARAM_inherit(ptr noundef %6, ptr noundef nonnull %3) #14
  br label %8

8:                                                ; preds = %2, %4
  %.0 = phi i32 [ %7, %4 ], [ 0, %2 ]
  ret i32 %.0
}